; ModuleID = '49/954.c'
source_filename = "49/954.c"
target datalayout = "e-m:e-p270:32:32-p271:32:32-p272:64:64-i64:64-f80:128-n8:16:32:64-S128"
target triple = "x86_64-pc-linux-gnu"

@.str = private unnamed_addr constant [3 x i8] c"%s\00", align 1
@.str.1 = private unnamed_addr constant [3 x i8] c"%c\00", align 1
@.str.2 = private unnamed_addr constant [2 x i8] c"\0A\00", align 1

; Function Attrs: noinline nounwind uwtable
define dso_local i32 @judge(i8* %0, i32 %1) #0 {
  %3 = alloca i8*, align 8
  %4 = alloca i32, align 4
  %5 = alloca i32, align 4
  %6 = alloca i32, align 4
  %7 = alloca [99 x i8], align 16
  store i8* %0, i8** %3, align 8
  store i32 %1, i32* %4, align 4
  %8 = bitcast [99 x i8]* %7 to i8*
  call void @llvm.memset.p0i8.i64(i8* align 16 %8, i8 0, i64 99, i1 false)
  store i32 0, i32* %5, align 4
  br label %9

9:                                                ; preds = %25, %2
  %10 = load i32, i32* %5, align 4
  %11 = load i32, i32* %4, align 4
  %12 = icmp slt i32 %10, %11
  br i1 %12, label %13, label %28

13:                                               ; preds = %9
  %14 = load i8*, i8** %3, align 8
  %15 = load i32, i32* %4, align 4
  %16 = load i32, i32* %5, align 4
  %17 = sub nsw i32 %15, %16
  %18 = sub nsw i32 %17, 1
  %19 = sext i32 %18 to i64
  %20 = getelementptr inbounds i8, i8* %14, i64 %19
  %21 = load i8, i8* %20, align 1
  %22 = load i32, i32* %5, align 4
  %23 = sext i32 %22 to i64
  %24 = getelementptr inbounds [99 x i8], [99 x i8]* %7, i64 0, i64 %23
  store i8 %21, i8* %24, align 1
  br label %25

25:                                               ; preds = %13
  %26 = load i32, i32* %5, align 4
  %27 = add nsw i32 %26, 1
  store i32 %27, i32* %5, align 4
  br label %9

28:                                               ; preds = %9
  %29 = getelementptr inbounds [99 x i8], [99 x i8]* %7, i64 0, i64 0
  %30 = load i8*, i8** %3, align 8
  %31 = call i32 @strcmp(i8* %29, i8* %30) #4
  %32 = icmp eq i32 %31, 0
  br i1 %32, label %33, label %34

33:                                               ; preds = %28
  store i32 1, i32* %6, align 4
  br label %35

34:                                               ; preds = %28
  store i32 0, i32* %6, align 4
  br label %35

35:                                               ; preds = %34, %33
  %36 = load i32, i32* %6, align 4
  ret i32 %36
}

; Function Attrs: argmemonly nounwind willreturn
declare void @llvm.memset.p0i8.i64(i8* nocapture writeonly, i8, i64, i1 immarg) #1

; Function Attrs: nounwind readonly
declare dso_local i32 @strcmp(i8*, i8*) #2

; Function Attrs: noinline nounwind uwtable
define dso_local i32 @main() #0 {
  %1 = alloca i32, align 4
  %2 = alloca i32, align 4
  %3 = alloca i32, align 4
  %4 = alloca i32, align 4
  %5 = alloca i32, align 4
  %6 = alloca [100 x i8], align 16
  %7 = alloca [99 x [99 x i8]], align 16
  %8 = alloca i8*, align 8
  %9 = alloca i32, align 4
  store i32 0, i32* %1, align 4
  %10 = call i32 (i8*, ...) @__isoc99_scanf(i8* getelementptr inbounds ([3 x i8], [3 x i8]* @.str, i64 0, i64 0), [100 x i8]* %6)
  %11 = getelementptr inbounds [100 x i8], [100 x i8]* %6, i64 0, i64 0
  %12 = call i64 @strlen(i8* %11) #4
  %13 = trunc i64 %12 to i32
  store i32 %13, i32* %2, align 4
  store i32 2, i32* %3, align 4
  br label %14

14:                                               ; preds = %92, %0
  %15 = load i32, i32* %3, align 4
  %16 = load i32, i32* %2, align 4
  %17 = icmp sle i32 %15, %16
  br i1 %17, label %18, label %95

18:                                               ; preds = %14
  %19 = bitcast [99 x [99 x i8]]* %7 to i8*
  call void @llvm.memset.p0i8.i64(i8* align 16 %19, i8 0, i64 9801, i1 false)
  store i32 0, i32* %4, align 4
  br label %20

20:                                               ; preds = %49, %18
  %21 = load i32, i32* %4, align 4
  %22 = load i32, i32* %2, align 4
  %23 = load i32, i32* %3, align 4
  %24 = sub nsw i32 %22, %23
  %25 = icmp sle i32 %21, %24
  br i1 %25, label %26, label %52

26:                                               ; preds = %20
  %27 = load i32, i32* %4, align 4
  %28 = sext i32 %27 to i64
  %29 = getelementptr inbounds [100 x i8], [100 x i8]* %6, i64 0, i64 %28
  store i8* %29, i8** %8, align 8
  store i32 0, i32* %5, align 4
  br label %30

30:                                               ; preds = %45, %26
  %31 = load i32, i32* %5, align 4
  %32 = load i32, i32* %3, align 4
  %33 = icmp slt i32 %31, %32
  br i1 %33, label %34, label %48

34:                                               ; preds = %30
  %35 = load i8*, i8** %8, align 8
  %36 = load i8, i8* %35, align 1
  %37 = load i32, i32* %4, align 4
  %38 = sext i32 %37 to i64
  %39 = getelementptr inbounds [99 x [99 x i8]], [99 x [99 x i8]]* %7, i64 0, i64 %38
  %40 = load i32, i32* %5, align 4
  %41 = sext i32 %40 to i64
  %42 = getelementptr inbounds [99 x i8], [99 x i8]* %39, i64 0, i64 %41
  store i8 %36, i8* %42, align 1
  %43 = load i8*, i8** %8, align 8
  %44 = getelementptr inbounds i8, i8* %43, i32 1
  store i8* %44, i8** %8, align 8
  br label %45

45:                                               ; preds = %34
  %46 = load i32, i32* %5, align 4
  %47 = add nsw i32 %46, 1
  store i32 %47, i32* %5, align 4
  br label %30

48:                                               ; preds = %30
  br label %49

49:                                               ; preds = %48
  %50 = load i32, i32* %4, align 4
  %51 = add nsw i32 %50, 1
  store i32 %51, i32* %4, align 4
  br label %20

52:                                               ; preds = %20
  store i32 0, i32* %4, align 4
  br label %53

53:                                               ; preds = %88, %52
  %54 = load i32, i32* %4, align 4
  %55 = load i32, i32* %2, align 4
  %56 = sub nsw i32 %55, 1
  %57 = icmp sle i32 %54, %56
  br i1 %57, label %58, label %91

58:                                               ; preds = %53
  %59 = load i32, i32* %4, align 4
  %60 = sext i32 %59 to i64
  %61 = getelementptr inbounds [99 x [99 x i8]], [99 x [99 x i8]]* %7, i64 0, i64 %60
  %62 = getelementptr inbounds [99 x i8], [99 x i8]* %61, i64 0, i64 0
  %63 = load i32, i32* %3, align 4
  %64 = call i32 @judge(i8* %62, i32 %63)
  store i32 %64, i32* %9, align 4
  %65 = load i32, i32* %9, align 4
  %66 = icmp eq i32 %65, 1
  br i1 %66, label %67, label %87

67:                                               ; preds = %58
  store i32 0, i32* %5, align 4
  br label %68

68:                                               ; preds = %82, %67
  %69 = load i32, i32* %5, align 4
  %70 = load i32, i32* %3, align 4
  %71 = icmp slt i32 %69, %70
  br i1 %71, label %72, label %85

72:                                               ; preds = %68
  %73 = load i32, i32* %4, align 4
  %74 = sext i32 %73 to i64
  %75 = getelementptr inbounds [99 x [99 x i8]], [99 x [99 x i8]]* %7, i64 0, i64 %74
  %76 = load i32, i32* %5, align 4
  %77 = sext i32 %76 to i64
  %78 = getelementptr inbounds [99 x i8], [99 x i8]* %75, i64 0, i64 %77
  %79 = load i8, i8* %78, align 1
  %80 = sext i8 %79 to i32
  %81 = call i32 (i8*, ...) @printf(i8* getelementptr inbounds ([3 x i8], [3 x i8]* @.str.1, i64 0, i64 0), i32 %80)
  br label %82

82:                                               ; preds = %72
  %83 = load i32, i32* %5, align 4
  %84 = add nsw i32 %83, 1
  store i32 %84, i32* %5, align 4
  br label %68

85:                                               ; preds = %68
  %86 = call i32 (i8*, ...) @printf(i8* getelementptr inbounds ([2 x i8], [2 x i8]* @.str.2, i64 0, i64 0))
  br label %87

87:                                               ; preds = %85, %58
  br label %88

88:                                               ; preds = %87
  %89 = load i32, i32* %4, align 4
  %90 = add nsw i32 %89, 1
  store i32 %90, i32* %4, align 4
  br label %53

91:                                               ; preds = %53
  br label %92

92:                                               ; preds = %91
  %93 = load i32, i32* %3, align 4
  %94 = add nsw i32 %93, 1
  store i32 %94, i32* %3, align 4
  br label %14

95:                                               ; preds = %14
  ret i32 0
}

declare dso_local i32 @__isoc99_scanf(i8*, ...) #3

; Function Attrs: nounwind readonly
declare dso_local i64 @strlen(i8*) #2

declare dso_local i32 @printf(i8*, ...) #3


!llvm.module.flags = !{!0}
!llvm.ident = !{!1}

!0 = !{i32 1, !"wchar_size", i32 4}
!1 = !{!"clang version 10.0.0-4ubuntu1 "}
